target datalayout = "e-m:e-p270:32:32-p271:32:32-p272:64:64-i64:64-i128:128-f80:128-n8:16:32:64-S128"
target triple = "x86_64-pc-linux-gnu"

%union.pthread_mutex_t = type { %struct.__pthread_mutex_s }
%struct.__pthread_mutex_s = type { i32, i32, i32, i32, i32, i16, i16, %struct.__pthread_internal_list }
%struct.__pthread_internal_list = type { ptr, ptr }
%struct.__va_list_tag = type { i32, i32, ptr, ptr }
%struct.LogBuffer = type { ptr, i32, ptr, i32, ptr, i32 }
%struct.AVClass = type { ptr, ptr, ptr, i32, i32, i32, i32, ptr, ptr, ptr, ptr, i32 }

@log_callback.print_prefix = internal global i32 1, align 4
@log_mutex = internal global %union.pthread_mutex_t zeroinitializer, align 8
@log_buffer = internal global ptr null, align 8
@log_buffer_size = internal global i32 0, align 4

; Function Attrs: nounwind uwtable
define internal void @log_callback(ptr noundef %0, i32 noundef %1, ptr noundef %2, ptr noundef %3) #0 {
  %5 = alloca ptr, align 8
  %6 = alloca i32, align 4
  %7 = alloca ptr, align 8
  %8 = alloca ptr, align 8
  %9 = alloca ptr, align 8
  %10 = alloca [1 x %struct.__va_list_tag], align 16
  %11 = alloca [1024 x i8], align 16
  %12 = alloca ptr, align 8
  %13 = alloca ptr, align 8
  %14 = alloca i32, align 4
  %15 = alloca ptr, align 8
  store ptr %0, ptr %5, align 8, !tbaa !37
  store i32 %1, ptr %6, align 4, !tbaa !11
  store ptr %2, ptr %7, align 8, !tbaa !4
  store ptr %3, ptr %8, align 8, !tbaa !38
  call void @llvm.lifetime.start.p0(i64 8, ptr %9) #14
  %16 = load ptr, ptr %5, align 8, !tbaa !37
  %17 = icmp ne ptr %16, null
  br i1 %17, label %18, label %21

18:                                               ; preds = %4
  %19 = load ptr, ptr %5, align 8, !tbaa !37
  %20 = load ptr, ptr %19, align 8, !tbaa !40
  br label %22

21:                                               ; preds = %4
  br label %22

22:                                               ; preds = %21, %18
  %23 = phi ptr [ %20, %18 ], [ null, %21 ]
  store ptr %23, ptr %9, align 8, !tbaa !40
  call void @llvm.lifetime.start.p0(i64 24, ptr %10) #14
  call void @llvm.lifetime.start.p0(i64 1024, ptr %11) #14
  call void @llvm.lifetime.start.p0(i64 8, ptr %12) #14
  %24 = getelementptr inbounds [1 x %struct.__va_list_tag], ptr %10, i64 0, i64 0
  %25 = load ptr, ptr %8, align 8, !tbaa !38
  call void @llvm.va_copy.p0(ptr %24, ptr %25)
  %26 = load ptr, ptr %5, align 8, !tbaa !37
  %27 = load i32, ptr %6, align 4, !tbaa !11
  %28 = load ptr, ptr %7, align 8, !tbaa !4
  %29 = load ptr, ptr %8, align 8, !tbaa !38
  call void @av_log_default_callback(ptr noundef %26, i32 noundef %27, ptr noundef %28, ptr noundef %29)
  %30 = load ptr, ptr %5, align 8, !tbaa !37
  %31 = load i32, ptr %6, align 4, !tbaa !11
  %32 = load ptr, ptr %7, align 8, !tbaa !4
  %33 = getelementptr inbounds [1 x %struct.__va_list_tag], ptr %10, i64 0, i64 0
  %34 = getelementptr inbounds [1024 x i8], ptr %11, i64 0, i64 0
  call void @av_log_format_line(ptr noundef %30, i32 noundef %31, ptr noundef %32, ptr noundef %33, ptr noundef %34, i32 noundef 1024, ptr noundef @log_callback.print_prefix)
  %35 = getelementptr inbounds [1 x %struct.__va_list_tag], ptr %10, i64 0, i64 0
  call void @llvm.va_end.p0(ptr %35)
  %36 = call i32 @pthread_mutex_lock(ptr noundef @log_mutex) #14
  %37 = load ptr, ptr @log_buffer, align 8, !tbaa !41
  %38 = load i32, ptr @log_buffer_size, align 4, !tbaa !11
  %39 = add nsw i32 %38, 1
  %40 = sext i32 %39 to i64
  %41 = call ptr @av_realloc_array(ptr noundef %37, i64 noundef %40, i64 noundef 48)
  store ptr %41, ptr %12, align 8, !tbaa !37
  %42 = load ptr, ptr %12, align 8, !tbaa !37
  %43 = icmp ne ptr %42, null
  br i1 %43, label %44, label %197

44:                                               ; preds = %22
  call void @llvm.lifetime.start.p0(i64 8, ptr %13) #14
  call void @llvm.lifetime.start.p0(i64 4, ptr %14) #14
  %45 = load ptr, ptr %12, align 8, !tbaa !37
  store ptr %45, ptr @log_buffer, align 8, !tbaa !41
  %46 = load ptr, ptr @log_buffer, align 8, !tbaa !41
  %47 = load i32, ptr @log_buffer_size, align 4, !tbaa !11
  %48 = sext i32 %47 to i64
  %49 = getelementptr inbounds %struct.LogBuffer, ptr %46, i64 %48
  call void @llvm.memset.p0.i64(ptr align 8 %49, i8 0, i64 48, i1 false)
  %50 = load ptr, ptr %9, align 8, !tbaa !40
  %51 = icmp ne ptr %50, null
  br i1 %51, label %52, label %59

52:                                               ; preds = %44
  %53 = load ptr, ptr %9, align 8, !tbaa !40
  %54 = getelementptr inbounds nuw %struct.AVClass, ptr %53, i32 0, i32 1
  %55 = load ptr, ptr %54, align 8, !tbaa !43
  %56 = load ptr, ptr %5, align 8, !tbaa !37
  %57 = call ptr %55(ptr noundef %56)
  %58 = call noalias ptr @av_strdup(ptr noundef %57)
  br label %60

59:                                               ; preds = %44
  br label %60

60:                                               ; preds = %59, %52
  %61 = phi ptr [ %58, %52 ], [ null, %59 ]
  %62 = load ptr, ptr @log_buffer, align 8, !tbaa !41
  %63 = load i32, ptr @log_buffer_size, align 4, !tbaa !11
  %64 = sext i32 %63 to i64
  %65 = getelementptr inbounds %struct.LogBuffer, ptr %62, i64 %64
  %66 = getelementptr inbounds nuw %struct.LogBuffer, ptr %65, i32 0, i32 0
  store ptr %61, ptr %66, align 8, !tbaa !46
  %67 = load ptr, ptr %9, align 8, !tbaa !40
  %68 = icmp ne ptr %67, null
  br i1 %68, label %69, label %95

69:                                               ; preds = %60
  %70 = load ptr, ptr %9, align 8, !tbaa !40
  %71 = getelementptr inbounds nuw %struct.AVClass, ptr %70, i32 0, i32 7
  %72 = load ptr, ptr %71, align 8, !tbaa !48
  %73 = icmp ne ptr %72, null
  br i1 %73, label %74, label %85

74:                                               ; preds = %69
  %75 = load ptr, ptr %9, align 8, !tbaa !40
  %76 = getelementptr inbounds nuw %struct.AVClass, ptr %75, i32 0, i32 7
  %77 = load ptr, ptr %76, align 8, !tbaa !48
  %78 = load ptr, ptr %5, align 8, !tbaa !37
  %79 = call i32 %77(ptr noundef %78)
  %80 = load ptr, ptr @log_buffer, align 8, !tbaa !41
  %81 = load i32, ptr @log_buffer_size, align 4, !tbaa !11
  %82 = sext i32 %81 to i64
  %83 = getelementptr inbounds %struct.LogBuffer, ptr %80, i64 %82
  %84 = getelementptr inbounds nuw %struct.LogBuffer, ptr %83, i32 0, i32 3
  store i32 %79, ptr %84, align 8, !tbaa !49
  br label %94

85:                                               ; preds = %69
  %86 = load ptr, ptr %9, align 8, !tbaa !40
  %87 = getelementptr inbounds nuw %struct.AVClass, ptr %86, i32 0, i32 6
  %88 = load i32, ptr %87, align 4, !tbaa !50
  %89 = load ptr, ptr @log_buffer, align 8, !tbaa !41
  %90 = load i32, ptr @log_buffer_size, align 4, !tbaa !11
  %91 = sext i32 %90 to i64
  %92 = getelementptr inbounds %struct.LogBuffer, ptr %89, i64 %91
  %93 = getelementptr inbounds nuw %struct.LogBuffer, ptr %92, i32 0, i32 3
  store i32 %88, ptr %93, align 8, !tbaa !49
  br label %94

94:                                               ; preds = %85, %74
  br label %95

95:                                               ; preds = %94, %60
  %96 = load i32, ptr %6, align 4, !tbaa !11
  %97 = load ptr, ptr @log_buffer, align 8, !tbaa !41
  %98 = load i32, ptr @log_buffer_size, align 4, !tbaa !11
  %99 = sext i32 %98 to i64
  %100 = getelementptr inbounds %struct.LogBuffer, ptr %97, i64 %99
  %101 = getelementptr inbounds nuw %struct.LogBuffer, ptr %100, i32 0, i32 1
  store i32 %96, ptr %101, align 8, !tbaa !51
  %102 = getelementptr inbounds [1024 x i8], ptr %11, i64 0, i64 0
  %103 = call noalias ptr @av_strdup(ptr noundef %102)
  %104 = load ptr, ptr @log_buffer, align 8, !tbaa !41
  %105 = load i32, ptr @log_buffer_size, align 4, !tbaa !11
  %106 = sext i32 %105 to i64
  %107 = getelementptr inbounds %struct.LogBuffer, ptr %104, i64 %106
  %108 = getelementptr inbounds nuw %struct.LogBuffer, ptr %107, i32 0, i32 2
  store ptr %103, ptr %108, align 8, !tbaa !52
  store ptr %103, ptr %13, align 8, !tbaa !4
  %109 = load ptr, ptr %13, align 8, !tbaa !4
  %110 = call i64 @strlen(ptr noundef %109) #15
  %111 = sub i64 %110, 1
  %112 = trunc i64 %111 to i32
  store i32 %112, ptr %14, align 4, !tbaa !11
  br label %113

113:                                              ; preds = %131, %95
  %114 = load i32, ptr %14, align 4, !tbaa !11
  %115 = icmp sge i32 %114, 0
  br i1 %115, label %116, label %124

116:                                              ; preds = %113
  %117 = load ptr, ptr %13, align 8, !tbaa !4
  %118 = load i32, ptr %14, align 4, !tbaa !11
  %119 = sext i32 %118 to i64
  %120 = getelementptr inbounds i8, ptr %117, i64 %119
  %121 = load i8, ptr %120, align 1, !tbaa !53
  %122 = sext i8 %121 to i32
  %123 = icmp eq i32 %122, 10
  br label %124

124:                                              ; preds = %116, %113
  %125 = phi i1 [ false, %113 ], [ %123, %116 ]
  br i1 %125, label %126, label %134

126:                                              ; preds = %124
  %127 = load ptr, ptr %13, align 8, !tbaa !4
  %128 = load i32, ptr %14, align 4, !tbaa !11
  %129 = sext i32 %128 to i64
  %130 = getelementptr inbounds i8, ptr %127, i64 %129
  store i8 0, ptr %130, align 1, !tbaa !53
  br label %131

131:                                              ; preds = %126
  %132 = load i32, ptr %14, align 4, !tbaa !11
  %133 = add nsw i32 %132, -1
  store i32 %133, ptr %14, align 4, !tbaa !11
  br label %113, !llvm.loop !54

134:                                              ; preds = %124
  %135 = load ptr, ptr %9, align 8, !tbaa !40
  %136 = icmp ne ptr %135, null
  br i1 %136, label %137, label %194

137:                                              ; preds = %134
  %138 = load ptr, ptr %9, align 8, !tbaa !40
  %139 = getelementptr inbounds nuw %struct.AVClass, ptr %138, i32 0, i32 5
  %140 = load i32, ptr %139, align 8, !tbaa !55
  %141 = icmp ne i32 %140, 0
  br i1 %141, label %142, label %194

142:                                              ; preds = %137
  call void @llvm.lifetime.start.p0(i64 8, ptr %15) #14
  %143 = load ptr, ptr %5, align 8, !tbaa !37
  %144 = load ptr, ptr %9, align 8, !tbaa !40
  %145 = getelementptr inbounds nuw %struct.AVClass, ptr %144, i32 0, i32 5
  %146 = load i32, ptr %145, align 8, !tbaa !55
  %147 = sext i32 %146 to i64
  %148 = getelementptr inbounds i8, ptr %143, i64 %147
  %149 = load ptr, ptr %148, align 8, !tbaa !56
  store ptr %149, ptr %15, align 8, !tbaa !56
  %150 = load ptr, ptr %15, align 8, !tbaa !56
  %151 = icmp ne ptr %150, null
  br i1 %151, label %152, label %193

152:                                              ; preds = %142
  %153 = load ptr, ptr %15, align 8, !tbaa !56
  %154 = load ptr, ptr %153, align 8, !tbaa !40
  %155 = icmp ne ptr %154, null
  br i1 %155, label %156, label %193

156:                                              ; preds = %152
  %157 = load ptr, ptr %15, align 8, !tbaa !56
  %158 = load ptr, ptr %157, align 8, !tbaa !40
  %159 = getelementptr inbounds nuw %struct.AVClass, ptr %158, i32 0, i32 1
  %160 = load ptr, ptr %159, align 8, !tbaa !43
  %161 = load ptr, ptr %15, align 8, !tbaa !56
  %162 = call ptr %160(ptr noundef %161)
  %163 = call noalias ptr @av_strdup(ptr noundef %162)
  %164 = load ptr, ptr @log_buffer, align 8, !tbaa !41
  %165 = load i32, ptr @log_buffer_size, align 4, !tbaa !11
  %166 = sext i32 %165 to i64
  %167 = getelementptr inbounds %struct.LogBuffer, ptr %164, i64 %166
  %168 = getelementptr inbounds nuw %struct.LogBuffer, ptr %167, i32 0, i32 4
  store ptr %163, ptr %168, align 8, !tbaa !58
  %169 = load ptr, ptr %15, align 8, !tbaa !56
  %170 = load ptr, ptr %169, align 8, !tbaa !40
  %171 = getelementptr inbounds nuw %struct.AVClass, ptr %170, i32 0, i32 7
  %172 = load ptr, ptr %171, align 8, !tbaa !48
  %173 = icmp ne ptr %172, null
  br i1 %173, label %174, label %181

174:                                              ; preds = %156
  %175 = load ptr, ptr %15, align 8, !tbaa !56
  %176 = load ptr, ptr %175, align 8, !tbaa !40
  %177 = getelementptr inbounds nuw %struct.AVClass, ptr %176, i32 0, i32 7
  %178 = load ptr, ptr %177, align 8, !tbaa !48
  %179 = load ptr, ptr %15, align 8, !tbaa !56
  %180 = call i32 %178(ptr noundef %179)
  br label %186

181:                                              ; preds = %156
  %182 = load ptr, ptr %15, align 8, !tbaa !56
  %183 = load ptr, ptr %182, align 8, !tbaa !40
  %184 = getelementptr inbounds nuw %struct.AVClass, ptr %183, i32 0, i32 6
  %185 = load i32, ptr %184, align 4, !tbaa !50
  br label %186

186:                                              ; preds = %181, %174
  %187 = phi i32 [ %180, %174 ], [ %185, %181 ]
  %188 = load ptr, ptr @log_buffer, align 8, !tbaa !41
  %189 = load i32, ptr @log_buffer_size, align 4, !tbaa !11
  %190 = sext i32 %189 to i64
  %191 = getelementptr inbounds %struct.LogBuffer, ptr %188, i64 %190
  %192 = getelementptr inbounds nuw %struct.LogBuffer, ptr %191, i32 0, i32 5
  store i32 %187, ptr %192, align 8, !tbaa !59
  br label %193

193:                                              ; preds = %186, %152, %142
  call void @llvm.lifetime.end.p0(i64 8, ptr %15) #14
  br label %194

194:                                              ; preds = %193, %137, %134
  %195 = load i32, ptr @log_buffer_size, align 4, !tbaa !11
  %196 = add nsw i32 %195, 1
  store i32 %196, ptr @log_buffer_size, align 4, !tbaa !11
  call void @llvm.lifetime.end.p0(i64 4, ptr %14) #14
  call void @llvm.lifetime.end.p0(i64 8, ptr %13) #14
  br label %197

197:                                              ; preds = %194, %22
  %198 = call i32 @pthread_mutex_unlock(ptr noundef @log_mutex) #14
  call void @llvm.lifetime.end.p0(i64 8, ptr %12) #14
  call void @llvm.lifetime.end.p0(i64 1024, ptr %11) #14
  call void @llvm.lifetime.end.p0(i64 24, ptr %10) #14
  call void @llvm.lifetime.end.p0(i64 8, ptr %9) #14
  ret void
}