; Function Attrs: nounwind uwtable
define internal void @log_callback(ptr noundef %0, i32 noundef %1, ptr noundef %2, ptr noundef %3) #0 {
  %5 = alloca [1 x %struct.__va_list_tag], align 16
  %6 = alloca [1024 x i8], align 16
  %.not = icmp eq ptr %0, null
  br i1 %.not, label %9, label %7

7:                                                ; preds = %4
  %8 = load ptr, ptr %0, align 8, !tbaa !46
  br label %9

9:                                                ; preds = %4, %7
  %10 = phi ptr [ %8, %7 ], [ null, %4 ]
  call void @llvm.lifetime.start.p0(i64 24, ptr nonnull %5) #20
  call void @llvm.lifetime.start.p0(i64 1024, ptr nonnull %6) #20
  call void @llvm.va_copy.p0(ptr nonnull %5, ptr %3)
  call void @av_log_default_callback(ptr noundef %0, i32 noundef %1, ptr noundef %2, ptr noundef %3) #20
  call void @av_log_format_line(ptr noundef %0, i32 noundef %1, ptr noundef %2, ptr noundef nonnull %5, ptr noundef nonnull %6, i32 noundef 1024, ptr noundef nonnull @log_callback.print_prefix) #20
  call void @llvm.va_end.p0(ptr nonnull %5)
  %11 = call i32 @pthread_mutex_lock(ptr noundef nonnull @log_mutex) #20
  %12 = load ptr, ptr @log_buffer, align 8, !tbaa !47
  %13 = load i32, ptr @log_buffer_size, align 4, !tbaa !11
  %14 = add nsw i32 %13, 1
  %15 = sext i32 %14 to i64
  %16 = call ptr @av_realloc_array(ptr noundef %12, i64 noundef %15, i64 noundef 48) #20
  %.not47 = icmp eq ptr %16, null
  br i1 %.not47, label %92, label %17

17:                                               ; preds = %9
  store ptr %16, ptr @log_buffer, align 8, !tbaa !47
  %18 = load i32, ptr @log_buffer_size, align 4, !tbaa !11
  %19 = sext i32 %18 to i64
  %20 = getelementptr inbounds %struct.LogBuffer, ptr %16, i64 %19
  call void @llvm.memset.p0.i64(ptr noundef nonnull align 8 dereferenceable(48) %20, i8 0, i64 48, i1 false)
  %.not48 = icmp eq ptr %10, null
  br i1 %.not48, label %.critedge55, label %21

21:                                               ; preds = %17
  %22 = getelementptr inbounds nuw i8, ptr %10, i64 8
  %23 = load ptr, ptr %22, align 8, !tbaa !49
  %24 = call ptr %23(ptr noundef %0) #20
  %25 = call noalias ptr @av_strdup(ptr noundef %24) #20
  %26 = load ptr, ptr @log_buffer, align 8, !tbaa !47
  %27 = load i32, ptr @log_buffer_size, align 4, !tbaa !11
  %28 = sext i32 %27 to i64
  %29 = getelementptr inbounds %struct.LogBuffer, ptr %26, i64 %28
  store ptr %25, ptr %29, align 8, !tbaa !52
  %30 = getelementptr inbounds nuw i8, ptr %10, i64 40
  %31 = load ptr, ptr %30, align 8, !tbaa !54
  %.not49 = icmp eq ptr %31, null
  br i1 %.not49, label %38, label %32

32:                                               ; preds = %21
  %33 = call i32 %31(ptr noundef %0) #20
  %34 = load ptr, ptr @log_buffer, align 8, !tbaa !47
  %35 = load i32, ptr @log_buffer_size, align 4, !tbaa !11
  %36 = sext i32 %35 to i64
  %37 = getelementptr inbounds %struct.LogBuffer, ptr %34, i64 %36, i32 3
  store i32 %33, ptr %37, align 8, !tbaa !55
  br label %.critedge55

38:                                               ; preds = %21
  %39 = getelementptr inbounds nuw i8, ptr %10, i64 36
  %40 = load i32, ptr %39, align 4, !tbaa !56
  %41 = getelementptr inbounds %struct.LogBuffer, ptr %26, i64 %28, i32 3
  store i32 %40, ptr %41, align 8, !tbaa !55
  br label %.critedge55

.critedge55:                                      ; preds = %17, %32, %38
  %.pre-phi = phi i64 [ %36, %32 ], [ %28, %38 ], [ %19, %17 ]
  %42 = phi ptr [ %34, %32 ], [ %26, %38 ], [ %16, %17 ]
  %43 = getelementptr inbounds %struct.LogBuffer, ptr %42, i64 %.pre-phi, i32 1
  store i32 %1, ptr %43, align 8, !tbaa !57
  %44 = call noalias ptr @av_strdup(ptr noundef nonnull %6) #20
  %45 = load ptr, ptr @log_buffer, align 8, !tbaa !47
  %46 = load i32, ptr @log_buffer_size, align 4, !tbaa !11
  %47 = sext i32 %46 to i64
  %48 = getelementptr inbounds %struct.LogBuffer, ptr %45, i64 %47, i32 2
  store ptr %44, ptr %48, align 8, !tbaa !58
  %49 = call i64 @strlen(ptr noundef nonnull dereferenceable(1) %44) #21
  %50 = trunc i64 %49 to i32
  %.056 = add i32 %50, -1
  %51 = icmp sgt i32 %.056, -1
  br i1 %51, label %.lr.ph, label %.critedge

.lr.ph:                                           ; preds = %.critedge55, %56
  %.057 = phi i32 [ %.0, %56 ], [ %.056, %.critedge55 ]
  %52 = zext nneg i32 %.057 to i64
  %53 = getelementptr inbounds nuw i8, ptr %44, i64 %52
  %54 = load i8, ptr %53, align 1, !tbaa !59
  %55 = icmp eq i8 %54, 10
  br i1 %55, label %56, label %.critedge

56:                                               ; preds = %.lr.ph
  store i8 0, ptr %53, align 1, !tbaa !59
  %.0 = add nsw i32 %.057, -1
  %57 = icmp sgt i32 %.057, 0
  br i1 %57, label %.lr.ph, label %.critedge, !llvm.loop !60

.critedge:                                        ; preds = %.lr.ph, %56, %.critedge55
  br i1 %.not48, label %89, label %58

58:                                               ; preds = %.critedge
  %59 = getelementptr inbounds nuw i8, ptr %10, i64 32
  %60 = load i32, ptr %59, align 8, !tbaa !61
  %.not50 = icmp eq i32 %60, 0
  br i1 %.not50, label %89, label %61

61:                                               ; preds = %58
  %62 = sext i32 %60 to i64
  %63 = getelementptr inbounds i8, ptr %0, i64 %62
  %64 = load ptr, ptr %63, align 8, !tbaa !62
  %.not51 = icmp eq ptr %64, null
  br i1 %.not51, label %89, label %65

65:                                               ; preds = %61
  %66 = load ptr, ptr %64, align 8, !tbaa !46
  %.not52 = icmp eq ptr %66, null
  br i1 %.not52, label %89, label %67

67:                                               ; preds = %65
  %68 = getelementptr inbounds nuw i8, ptr %66, i64 8
  %69 = load ptr, ptr %68, align 8, !tbaa !49
  %70 = call ptr %69(ptr noundef nonnull %64) #20
  %71 = call noalias ptr @av_strdup(ptr noundef %70) #20
  %72 = load ptr, ptr @log_buffer, align 8, !tbaa !47
  %73 = load i32, ptr @log_buffer_size, align 4, !tbaa !11
  %74 = sext i32 %73 to i64
  %75 = getelementptr inbounds %struct.LogBuffer, ptr %72, i64 %74, i32 4
  store ptr %71, ptr %75, align 8, !tbaa !65
  %76 = load ptr, ptr %64, align 8, !tbaa !46
  %77 = getelementptr inbounds nuw i8, ptr %76, i64 40
  %78 = load ptr, ptr %77, align 8, !tbaa !54
  %.not53 = icmp eq ptr %78, null
  br i1 %.not53, label %81, label %79

79:                                               ; preds = %67
  %80 = call i32 %78(ptr noundef nonnull %64) #20
  %.pre = load ptr, ptr @log_buffer, align 8, !tbaa !47
  %.pre59 = load i32, ptr @log_buffer_size, align 4, !tbaa !11
  %.pre60 = sext i32 %.pre59 to i64
  br label %84

81:                                               ; preds = %67
  %82 = getelementptr inbounds nuw i8, ptr %76, i64 36
  %83 = load i32, ptr %82, align 4, !tbaa !56
  br label %84

84:                                               ; preds = %81, %79
  %.pre-phi61 = phi i64 [ %74, %81 ], [ %.pre60, %79 ]
  %85 = phi i32 [ %73, %81 ], [ %.pre59, %79 ]
  %86 = phi ptr [ %72, %81 ], [ %.pre, %79 ]
  %87 = phi i32 [ %83, %81 ], [ %80, %79 ]
  %88 = getelementptr inbounds %struct.LogBuffer, ptr %86, i64 %.pre-phi61, i32 5
  store i32 %87, ptr %88, align 8, !tbaa !66
  br label %89

89:                                               ; preds = %61, %65, %84, %58, %.critedge
  %90 = phi i32 [ %46, %61 ], [ %46, %65 ], [ %85, %84 ], [ %46, %58 ], [ %46, %.critedge ]
  %91 = add nsw i32 %90, 1
  store i32 %91, ptr @log_buffer_size, align 4, !tbaa !11
  br label %92

92:                                               ; preds = %89, %9
  %93 = call i32 @pthread_mutex_unlock(ptr noundef nonnull @log_mutex) #20
  call void @llvm.lifetime.end.p0(i64 1024, ptr nonnull %6) #20
  call void @llvm.lifetime.end.p0(i64 24, ptr nonnull %5) #20
  ret void
}